; Function Attrs: mustprogress nofree norecurse nosync nounwind memory(write, argmem: readwrite, inaccessiblemem: none) uwtable
define dso_local void @_ZN11btMultiBody21clearConstraintForcesEv(ptr nocapture noundef nonnull align 8 dereferenceable(640) %this) local_unnamed_addr #3 align 2 {
entry:
  %m_baseConstraintForce = getelementptr inbounds i8, ptr %this, i64 140
  %m_size.i.i = getelementptr inbounds i8, ptr %this, i64 180
  tail call void @llvm.memset.p0.i64(ptr noundef nonnull align 4 dereferenceable(32) %m_baseConstraintForce, i8 0, i64 32, i1 false)
  %0 = load i32, ptr %m_size.i.i, align 4
  %cmp16 = icmp sgt i32 %0, 0
  br i1 %cmp16, label %for.body.lr.ph, label %for.end

for.body.lr.ph:                                   ; preds = %entry
  %m_data.i = getelementptr inbounds i8, ptr %this, i64 192
  br label %for.body

for.body:                                         ; preds = %for.body.lr.ph, %for.body
  %indvars.iv = phi i64 [ 0, %for.body.lr.ph ], [ %indvars.iv.next, %for.body ]
  %1 = load ptr, ptr %m_data.i, align 8
  %m_appliedConstraintForce = getelementptr inbounds %struct.btMultibodyLink, ptr %1, i64 %indvars.iv, i32 17
  tail call void @llvm.memset.p0.i64(ptr noundef nonnull align 4 dereferenceable(16) %m_appliedConstraintForce, i8 0, i64 16, i1 false)
  %2 = load ptr, ptr %m_data.i, align 8
  %m_appliedConstraintTorque = getelementptr inbounds %struct.btMultibodyLink, ptr %2, i64 %indvars.iv, i32 18
  %indvars.iv.next = add nuw nsw i64 %indvars.iv, 1
  tail call void @llvm.memset.p0.i64(ptr noundef nonnull align 4 dereferenceable(16) %m_appliedConstraintTorque, i8 0, i64 16, i1 false)
  %3 = load i32, ptr %m_size.i.i, align 4
  %4 = sext i32 %3 to i64
  %cmp = icmp slt i64 %indvars.iv.next, %4
  br i1 %cmp, label %for.body, label %for.end, !llvm.loop !5

for.end:                                          ; preds = %for.body, %entry
  ret void
}